; Function Attrs: nofree norecurse nosync nounwind memory(argmem: readwrite) uwtable
define internal void @bgr12leToUV_half_c(ptr noundef writeonly captures(none) %0, ptr noundef writeonly captures(none) %1, ptr readnone captures(none) %2, ptr noundef readonly captures(none) %3, ptr readnone captures(none) %4, i32 noundef %5, ptr noundef readonly captures(none) %6, ptr readnone captures(none) %7) #1 {
  %9 = getelementptr inbounds nuw i8, ptr %6, i64 12
  %10 = load i32, ptr %9, align 4, !tbaa !42
  %11 = shl nsw i32 %10, 8
  %12 = getelementptr inbounds nuw i8, ptr %6, i64 16
  %13 = load i32, ptr %12, align 4, !tbaa !42
  %14 = shl nsw i32 %13, 4
  %15 = getelementptr inbounds nuw i8, ptr %6, i64 20
  %16 = load i32, ptr %15, align 4, !tbaa !42
  %17 = getelementptr inbounds nuw i8, ptr %6, i64 24
  %18 = load i32, ptr %17, align 4, !tbaa !42
  %19 = shl nsw i32 %18, 8
  %20 = getelementptr inbounds nuw i8, ptr %6, i64 28
  %21 = load i32, ptr %20, align 4, !tbaa !42
  %22 = shl nsw i32 %21, 4
  %23 = getelementptr inbounds nuw i8, ptr %6, i64 32
  %24 = load i32, ptr %23, align 4, !tbaa !42
  %invariant.gep = getelementptr i8, ptr %3, i64 2
  %25 = icmp sgt i32 %5, 0
  br i1 %25, label %.lr.ph.preheader, label %rgb16_32ToUV_half_c_template.exit

.lr.ph.preheader:                                 ; preds = %8
  %wide.trip.count = zext nneg i32 %5 to i64
  br label %.lr.ph

.lr.ph:                                           ; preds = %.lr.ph.preheader, %.lr.ph
  %indvars.iv = phi i64 [ 0, %.lr.ph.preheader ], [ %indvars.iv.next, %.lr.ph ]
  %26 = shl nsw i64 %indvars.iv, 2
  %27 = getelementptr inbounds nuw i8, ptr %3, i64 %26
  %28 = load i16, ptr %27, align 1, !tbaa !34
  %29 = zext i16 %28 to i32
  %gep = getelementptr i8, ptr %invariant.gep, i64 %26
  %30 = load i16, ptr %gep, align 1, !tbaa !34
  %31 = zext i16 %30 to i32
  %32 = and i32 %29, 61680
  %33 = and i32 %31, 61680
  %34 = add nuw nsw i32 %33, %32
  %35 = add nuw nsw i32 %31, %29
  %36 = sub nsw i32 %35, %34
  %37 = and i32 %36, 7936
  %38 = and i32 %34, 496
  %39 = and i32 %36, 31
  %40 = mul nsw i32 %11, %39
  %41 = mul nsw i32 %14, %38
  %42 = mul nsw i32 %37, %16
  %43 = add i32 %41, 134225920
  %44 = add i32 %43, %40
  %45 = add i32 %44, %42
  %46 = lshr i32 %45, 14
  %47 = trunc i32 %46 to i16
  %48 = getelementptr inbounds nuw i16, ptr %0, i64 %indvars.iv
  store i16 %47, ptr %48, align 2, !tbaa !43
  %49 = mul nsw i32 %19, %39
  %50 = mul nsw i32 %22, %38
  %51 = mul nsw i32 %37, %24
  %52 = add i32 %50, 134225920
  %53 = add i32 %52, %49
  %54 = add i32 %53, %51
  %55 = lshr i32 %54, 14
  %56 = trunc i32 %55 to i16
  %57 = getelementptr inbounds nuw i16, ptr %1, i64 %indvars.iv
  store i16 %56, ptr %57, align 2, !tbaa !43
  %indvars.iv.next = add nuw nsw i64 %indvars.iv, 1
  %exitcond.not = icmp eq i64 %indvars.iv.next, %wide.trip.count
  br i1 %exitcond.not, label %rgb16_32ToUV_half_c_template.exit, label %.lr.ph, !llvm.loop !78

rgb16_32ToUV_half_c_template.exit:                ; preds = %.lr.ph, %8
  ret void
}